(dp1
S'tattooing'
p2
I443
sS'raining'
p3
I319
sS'restraining'
p4
I332
sS'splashing'
p5
I401
sS'walking'
p6
I479
sS'hanging'
p7
I189
sS'inflating'
p8
I207
sS'displaying'
p9
I115
sS'marching'
p10
I241
sS'feeding'
p11
I151
sS'hunting'
p12
I201
sS'snowing'
p13
I389
sS'asking'
p14
I11
sS'chewing'
p15
I64
sS'slipping'
p16
I380
sS'teaching'
p17
I445
sS'flicking'
p18
I160
sS'shaving'
p19
I355
sS'ballooning'
p20
I17
sS'intermingling'
p21
I212
sS'flinging'
p22
I161
sS'sitting'
p23
I370
sS'yanking'
p24
I502
sS'putting'
p25
I315
sS'drinking'
p26
I125
sS'wilting'
p27
I494
sS'mashing'
p28
I242
sS'baking'
p29
I16
sS'kneading'
p30
I220
sS'rearing'
p31
I323
sS'bulldozing'
p32
I43
sS'slouching'
p33
I382
sS'moistening'
p34
I251
sS'inserting'
p35
I209
sS'lecturing'
p36
I233
sS'bubbling'
p37
I40
sS'shushing'
p38
I366
sS'chopping'
p39
I66
sS'shrugging'
p40
I365
sS'parachuting'
p41
I270
sS'giving'
p42
I177
sS'cooking'
p43
I87
sS'waiting'
p44
I478
sS'saluting'
p45
I341
sS'falling'
p46
I148
sS'racing'
p47
I317
sS'ramming'
p48
I321
sS'pushing'
p49
I314
sS'wrapping'
p50
I498
sS'leaping'
p51
I232
sS'packing'
p52
I267
sS'foraging'
p53
I166
sS'operating'
p54
I264
sS'mourning'
p55
I255
sS'stretching'
p56
I423
sS'ignoring'
p57
I204
sS'pinning'
p58
I286
sS'sharpening'
p59
I354
sS'jogging'
p60
I215
sS'browsing'
p61
I38
sS'sealing'
p62
I349
sS'rafting'
p63
I318
sS'examining'
p64
I144
sS'hiking'
p65
I194
sS'clapping'
p66
I68
sS'stuffing'
p67
I428
sS'hunching'
p68
I200
sS'raking'
p69
I320
sS'ailing'
p70
I2
sS'singing'
p71
I369
sS'standing'
p72
I413
sS'taxiing'
p73
I444
sS'working'
p74
I497
sS'whipping'
p75
I490
sS'arching'
p76
I7
sS'steering'
p77
I416
sS'distributing'
p78
I118
sS'stacking'
p79
I411
sS'shredding'
p80
I364
sS'panhandling'
p81
I269
sS'pitching'
p82
I287
sS'squeezing'
p83
I409
sS'curtsying'
p84
I101
sS'pawing'
p85
I274
sS'spearing'
p86
I397
sS'whirling'
p87
I491
sS'stinging'
p88
I417
sS'tilting'
p89
I451
sS'carrying'
p90
I55
sS'pinching'
p91
I285
sS'flapping'
p92
I158
sS'tying'
p93
I462
sS'arranging'
p94
I8
sS'tearing'
p95
I446
sS'blocking'
p96
I26
sS'swooping'
p97
I438
sS'practicing'
p98
I299
sS'recovering'
p99
I326
sS'uncorking'
p100
I464
sS'installing'
p101
I210
sS'dousing'
p102
I121
sS'buttering'
p103
I46
sS'scrubbing'
p104
I348
sS'making'
p105
I239
sS'unpacking'
p106
I467
sS'mowing'
p107
I256
sS'spying'
p108
I408
sS'dripping'
p109
I126
sS'heaving'
p110
I192
sS'pulling'
p111
I310
sS'counting'
p112
I89
sS'docking'
p113
I120
sS'scolding'
p114
I343
sS'complaining'
p115
I83
sS'drying'
p116
I131
sS'poking'
p117
I293
sS'tickling'
p118
I449
sS'glowing'
p119
I179
sS'recuperating'
p120
I327
sS'butting'
p121
I47
sS'communicating'
p122
I80
sS'peeling'
p123
I278
sS'jumping'
p124
I217
sS'hoisting'
p125
I198
sS'nailing'
p126
I258
sS'lighting'
p127
I236
sS'shelving'
p128
I358
sS'wagging'
p129
I477
sS'lifting'
p130
I235
sS'strapping'
p131
I422
sS'gluing'
p132
I180
sS'twisting'
p133
I461
sS'hauling'
p134
I191
sS'destroying'
p135
I107
sS'crawling'
p136
I94
sS'punting'
p137
I313
sS'erasing'
p138
I142
sS'bathing'
p139
I21
sS'breaking'
p140
I36
sS'telephoning'
p141
I447
sS'miming'
p142
I248
sS'congregating'
p143
I85
sS'smiling'
p144
I386
sS'decorating'
p145
I104
sS'scoring'
p146
I345
sS'pouting'
p147
I298
sS'yawning'
p148
I503
sS'soaking'
p149
I391
sS'bandaging'
p150
I18
sS'writing'
p151
I501
sS'coaching'
p152
I76
sS'brawling'
p153
I35
sS'spoiling'
p154
I402
sS'pooing'
p155
I294
sS'sucking'
p156
I432
sS'unveiling'
p157
I469
sS'encouraging'
p158
I141
sS'peeing'
p159
I277
sS'educating'
p160
I136
sS'bothering'
p161
I30
sS'sweeping'
p162
I435
sS'washing'
p163
I480
sS'spinning'
p164
I399
sS'dyeing'
p165
I134
sS'filling'
p166
I153
sS'ducking'
p167
I132
sS'shaking'
p168
I353
sS'signing'
p169
I368
sS'braiding'
p170
I33
sS'crushing'
p171
I98
sS'celebrating'
p172
I59
sS'catching'
p173
I58
sS'juggling'
p174
I216
sS'preaching'
p175
I301
sS'scratching'
p176
I347
sS'shearing'
p177
I356
sS'ejecting'
p178
I137
sS'driving'
p179
I127
sS'puckering'
p180
I309
sS'urinating'
p181
I470
sS'sliding'
p182
I379
sS'igniting'
p183
I203
sS'turning'
p184
I459
sS'pumping'
p185
I311
sS'clenching'
p186
I72
sS'ascending'
p187
I10
sS'grimacing'
p188
I184
sS'fastening'
p189
I150
sS'plowing'
p190
I290
sS'repairing'
p191
I330
sS'training'
p192
I454
sS'potting'
p193
I295
sS'blossoming'
p194
I27
sS'cheering'
p195
I62
sS'pasting'
p196
I272
sS'wading'
p197
I476
sS'squinting'
p198
I410
sS'skiing'
p199
I374
sS'biting'
p200
I25
sS'grieving'
p201
I182
sS'sneezing'
p202
I387
sS'drooling'
p203
I128
sS'striking'
p204
I424
sS'knocking'
p205
I222
sS'flipping'
p206
I162
sS'soaring'
p207
I392
sS'manicuring'
p208
I240
sS'leading'
p209
I229
sS'boating'
p210
I29
sS'typing'
p211
I463
sS'lacing'
p212
I223
sS'farming'
p213
I149
sS'photographing'
p214
I282
sS'speaking'
p215
I396
sS'mining'
p216
I249
sS'selling'
p217
I350
sS'winking'
p218
I495
sS'bouncing'
p219
I31
sS'leaking'
p220
I230
sS'cheerleading'
p221
I63
sS'surfing'
p222
I433
sS'autographing'
p223
I15
sS'chasing'
p224
I60
sS'boarding'
p225
I28
sS'nagging'
p226
I257
sS'scraping'
p227
I346
sS'recording'
p228
I325
sS'providing'
p229
I305
sS'tipping'
p230
I452
sS'nuzzling'
p231
I260
sS'gathering'
p232
I175
sS'reassuring'
p233
I324
sS'patting'
p234
I273
sS'guarding'
p235
I187
sS'interrogating'
p236
I213
sS'emptying'
p237
I140
sS'decomposing'
p238
I103
sS'dancing'
p239
I102
sS'skidding'
p240
I373
sS'flaming'
p241
I157
sS'dining'
p242
I110
sS'hurling'
p243
I202
sS'scooping'
p244
I344
sS'weeding'
p245
I484
sS'disembarking'
p246
I114
sS'sewing'
p247
I352
sS'videotaping'
p248
I473
sS'colliding'
p249
I77
sS'socializing'
p250
I393
sS'branching'
p251
I34
sS'giggling'
p252
I176
sS'sprinting'
p253
I406
sS'storming'
p254
I421
sS'massaging'
p255
I243
sS'voting'
p256
I474
sS'painting'
p257
I268
sS'attacking'
p258
I14
sS'signaling'
p259
I367
sS'dissecting'
p260
I116
sS'emerging'
p261
I139
sS'applauding'
p262
I4
sS'grilling'
p263
I183
sS'spanking'
p264
I395
sS'hugging'
p265
I199
sS'serving'
p266
I351
sS'frisking'
p267
I168
sS'gasping'
p268
I174
sS'crashing'
p269
I93
sS'coloring'
p270
I78
sS'detaining'
p271
I108
sS'riding'
p272
I334
sS'clawing'
p273
I69
sS'hoeing'
p274
I197
sS'rinsing'
p275
I335
sS'fording'
p276
I167
sS'mending'
p277
I245
sS'sprouting'
p278
I407
sS'begging'
p279
I22
sS'frowning'
p280
I169
sS'spraying'
p281
I403
sS'competing'
p282
I82
sS'frying'
p283
I170
sS'imitating'
p284
I205
sS'stitching'
p285
I419
sS'sowing'
p286
I394
sS'spilling'
p287
I398
sS'covering'
p288
I90
sS'rowing'
p289
I338
sS'dipping'
p290
I111
sS'licking'
p291
I234
sS'calling'
p292
I50
sS'shelling'
p293
I357
sS'overflowing'
p294
I265
sS'wheeling'
p295
I489
sS'discussing'
p296
I113
sS'fishing'
p297
I155
sS'constructing'
p298
I86
sS'burying'
p299
I45
sS'throwing'
p300
I448
sS'drenching'
p301
I124
sS'injecting'
p302
I208
sS'pricking'
p303
I303
sS'exterminating'
p304
I146
sS'camping'
p305
I53
sS'tackling'
p306
I439
sS'clearing'
p307
I71
sS'interviewing'
p308
I214
sS'plummeting'
p309
I291
sS'wrinkling'
p310
I500
sS'wetting'
p311
I488
sS'reading'
p312
I322
sS'weighing'
p313
I486
sS'deflecting'
p314
I105
sS'opening'
p315
I263
sS'brewing'
p316
I37
sS'lapping'
p317
I225
sS'vacuuming'
p318
I471
sS'kicking'
p319
I218
sS'phoning'
p320
I281
sS'loading'
p321
I237
sS'picking'
p322
I283
sS'staring'
p323
I415
sS'folding'
p324
I165
sS'wringing'
p325
I499
sS'smearing'
p326
I384
sS'betting'
p327
I23
sS'smashing'
p328
I383
sS'subduing'
p329
I430
sS'packaging'
p330
I266
sS'nipping'
p331
I259
sS'stroking'
p332
I426
sS'pouring'
p333
I297
sS'pedaling'
p334
I276
sS'submerging'
p335
I431
sS'dusting'
p336
I133
sS'chiseling'
p337
I65
sS'hitting'
p338
I196
sS'dropping'
p339
I129
sS'baptizing'
p340
I19
sS'instructing'
p341
I211
sS'resting'
p342
I331
sS'shopping'
p343
I361
sS'crying'
p344
I99
sS'coughing'
p345
I88
sS'releasing'
p346
I329
sS'misbehaving'
p347
I250
sS'cresting'
p348
I95
sS'rocking'
p349
I336
sS'dialing'
p350
I109
sS'paying'
p351
I275
sS'talking'
p352
I440
sS'queuing'
p353
I316
sS'grinning'
p354
I186
sS'leaning'
p355
I231
sS'kissing'
p356
I219
sS'slapping'
p357
I376
sS'trimming'
p358
I455
sS'biking'
p359
I24
sS'piloting'
p360
I284
sS'welding'
p361
I487
sS'erupting'
p362
I143
sS'tilling'
p363
I450
sS'crowning'
p364
I97
sS'rubbing'
p365
I339
sS'sleeping'
p366
I377
sS'skipping'
p367
I375
sS'pressing'
p368
I302
sS'clinging'
p369
I74
sS'swinging'
p370
I437
sS'pruning'
p371
I307
sS'whisking'
p372
I492
sS'shooting'
p373
I360
sS'unplugging'
p374
I468
sS'parading'
p375
I271
sS'fetching'
p376
I152
sS'locking'
p377
I238
sS'shoveling'
p378
I363
sS'glaring'
p379
I178
sS'confronting'
p380
I84
sS'cramming'
p381
I92
sS'disciplining'
p382
I112
sS'microwaving'
p383
I246
sS'running'
p384
I340
sS'cleaning'
p385
I70
sS'spitting'
p386
I400
sS'climbing'
p387
I73
sS'slicing'
p388
I378
sS'caressing'
p389
I54
sS'slithering'
p390
I381
sS'flexing'
p391
I159
sS'studying'
p392
I427
sS'drawing'
p393
I123
sS'handcuffing'
p394
I188
sS'assembling'
p395
I12
sS'lathering'
p396
I226
sS'shivering'
p397
I359
sS'fueling'
p398
I171
sS'distracting'
p399
I117
sS'circling'
p400
I67
sS'praying'
p401
I300
sS'kneeling'
p402
I221
sS'apprehending'
p403
I6
sS'flossing'
p404
I164
sS'exercising'
p405
I145
sS'arresting'
p406
I9
sS'shouting'
p407
I362
sS'combing'
p408
I79
sS'unloading'
p409
I465
sS'harvesting'
p410
I190
sS'barbecuing'
p411
I20
sS'molding'
p412
I253
sS'checking'
p413
I61
sS'descending'
p414
I106
sS'saying'
p415
I342
sS'aiming'
p416
I3
sS'pouncing'
p417
I296
sS'waddling'
p418
I475
sS'performing'
p419
I279
sS'taping'
p420
I441
sS'laughing'
p421
I227
sS'clipping'
p422
I75
sS'gardening'
p423
I173
sS'punching'
p424
I312
sS'twirling'
p425
I460
sS'diving'
p426
I119
sS'sniffing'
p427
I388
sS'sketching'
p428
I372
sS'grinding'
p429
I185
sS'filming'
p430
I154
sS'rehabilitating'
p431
I328
sS'measuring'
p432
I244
sS'eating'
p433
I135
sS'buckling'
p434
I41
sS'hitchhiking'
p435
I195
sS'bowing'
p436
I32
sS'tripping'
p437
I456
sS'officiating'
p438
I262
sS'tuning'
p439
I458
sS'waving'
p440
I482
sS'crafting'
p441
I91
sS'drumming'
p442
I130
sS'plunging'
p443
I292
sS'swimming'
p444
I436
sS'carting'
p445
I56
sS'watering'
p446
I481
sS'stampeding'
p447
I412
sS'curling'
p448
I100
sS'burning'
p449
I44
sS'perspiring'
p450
I280
sS'spreading'
p451
I404
sS'immersing'
p452
I206
sS'snuggling'
p453
I390
sS'carving'
p454
I57
sS'tugging'
p455
I457
sS'calming'
p456
I51
sS'attaching'
p457
I13
sS'retrieving'
p458
I333
sS'camouflaging'
p459
I52
sS'placing'
p460
I288
sS'towing'
p461
I453
sS'prowling'
p462
I306
sS'launching'
p463
I228
sS'stooping'
p464
I420
sS'weeping'
p465
I485
sS'offering'
p466
I261
sS'adjusting'
p467
I0
sS'landing'
p468
I224
sS'moisturizing'
p469
I252
sS'tasting'
p470
I442
sS'wiping'
p471
I496
sS'sprinkling'
p472
I405
sS'buying'
p473
I49
sS'applying'
p474
I5
sS'protesting'
p475
I304
sS'stumbling'
p476
I429
sS'stapling'
p477
I414
sS'mopping'
p478
I254
sS'stirring'
p479
I418
sS'skating'
p480
I371
sS'gnawing'
p481
I181
sS'floating'
p482
I163
sS'dragging'
p483
I122
sS'commuting'
p484
I81
sS'planting'
p485
I289
sS'fixing'
p486
I156
sS'milking'
p487
I247
sS'gambling'
p488
I172
sS'brushing'
p489
I39
sS'vaulting'
p490
I472
sS'crouching'
p491
I96
sS'prying'
p492
I308
sS'whistling'
p493
I493
sS'helping'
p494
I193
sS'smelling'
p495
I385
sS'unlocking'
p496
I466
sS'extinguishing'
p497
I147
sS'building'
p498
I42
sS'rotting'
p499
I337
sS'swarming'
p500
I434
sS'admiring'
p501
I1
sS'waxing'
p502
I483
sS'stripping'
p503
I425
sS'embracing'
p504
I138
sS'buttoning'
p505
I48
s.